target datalayout = "e-m:e-p270:32:32-p271:32:32-p272:64:64-i64:64-i128:128-f80:128-n8:16:32:64-S128"
target triple = "x86_64-pc-linux-gnu"

%struct.QueryOperand = type { i8, i8, i8, i32, i32 }
%struct.GinChkVal = type { ptr, ptr, ptr }

; Function Attrs: nounwind uwtable
define internal i32 @checkcondition_gin(ptr noundef %0, ptr noundef %1, ptr noundef %2) #0 {
  %4 = alloca ptr, align 8
  %5 = alloca ptr, align 8
  %6 = alloca ptr, align 8
  %7 = alloca ptr, align 8
  %8 = alloca i32, align 4
  %9 = alloca i8, align 1
  store ptr %0, ptr %4, align 8
  store ptr %1, ptr %5, align 8
  store ptr %2, ptr %6, align 8
  call void @llvm.lifetime.start.p0(i64 8, ptr %7) #5
  %10 = load ptr, ptr %4, align 8
  store ptr %10, ptr %7, align 8
  call void @llvm.lifetime.start.p0(i64 4, ptr %8) #5
  call void @llvm.lifetime.start.p0(i64 1, ptr %9) #5
  %11 = load ptr, ptr %7, align 8
  %12 = getelementptr inbounds nuw %struct.GinChkVal, ptr %11, i32 0, i32 2
  %13 = load ptr, ptr %12, align 8
  %14 = load ptr, ptr %5, align 8
  %15 = load ptr, ptr %7, align 8
  %16 = getelementptr inbounds nuw %struct.GinChkVal, ptr %15, i32 0, i32 0
  %17 = load ptr, ptr %16, align 8
  %18 = ptrtoint ptr %14 to i64
  %19 = ptrtoint ptr %17 to i64
  %20 = sub i64 %18, %19
  %21 = sdiv exact i64 %20, 12
  %22 = getelementptr inbounds i32, ptr %13, i64 %21
  %23 = load i32, ptr %22, align 4
  store i32 %23, ptr %8, align 4
  %24 = load ptr, ptr %7, align 8
  %25 = getelementptr inbounds nuw %struct.GinChkVal, ptr %24, i32 0, i32 1
  %26 = load ptr, ptr %25, align 8
  %27 = load i32, ptr %8, align 4
  %28 = sext i32 %27 to i64
  %29 = getelementptr inbounds i8, ptr %26, i64 %28
  %30 = load i8, ptr %29, align 1
  store i8 %30, ptr %9, align 1
  %31 = load i8, ptr %9, align 1
  %32 = sext i8 %31 to i32
  %33 = icmp eq i32 %32, 1
  br i1 %33, label %34, label %45

34:                                               ; preds = %3
  %35 = load ptr, ptr %5, align 8
  %36 = getelementptr inbounds nuw %struct.QueryOperand, ptr %35, i32 0, i32 1
  %37 = load i8, ptr %36, align 1
  %38 = zext i8 %37 to i32
  %39 = icmp ne i32 %38, 0
  br i1 %39, label %43, label %40

40:                                               ; preds = %34
  %41 = load ptr, ptr %6, align 8
  %42 = icmp ne ptr %41, null
  br i1 %42, label %43, label %44

43:                                               ; preds = %40, %34
  store i8 2, ptr %9, align 1
  br label %44

44:                                               ; preds = %43, %40
  br label %45

45:                                               ; preds = %44, %3
  %46 = load i8, ptr %9, align 1
  %47 = sext i8 %46 to i32
  call void @llvm.lifetime.end.p0(i64 1, ptr %9) #5
  call void @llvm.lifetime.end.p0(i64 4, ptr %8) #5
  call void @llvm.lifetime.end.p0(i64 8, ptr %7) #5
  ret i32 %47
}