; Function Attrs: mustprogress nofree norecurse nosync nounwind willreturn memory(read, inaccessiblemem: none) uwtable
define internal range(i32 -128, 128) i32 @checkcondition_gin(ptr noundef readonly captures(none) %0, ptr noundef %1, ptr noundef readnone captures(address_is_null) %2) #3 {
  %4 = getelementptr inbounds nuw i8, ptr %0, i64 16
  %5 = load ptr, ptr %4, align 8
  %6 = load ptr, ptr %0, align 8
  %7 = ptrtoint ptr %1 to i64
  %8 = ptrtoint ptr %6 to i64
  %9 = sub i64 %7, %8
  %10 = sdiv exact i64 %9, 3
  %11 = getelementptr inbounds i8, ptr %5, i64 %10
  %12 = load i32, ptr %11, align 4
  %13 = getelementptr inbounds nuw i8, ptr %0, i64 8
  %14 = load ptr, ptr %13, align 8
  %15 = sext i32 %12 to i64
  %16 = getelementptr inbounds i8, ptr %14, i64 %15
  %17 = load i8, ptr %16, align 1
  %18 = icmp eq i8 %17, 1
  br i1 %18, label %19, label %24

19:                                               ; preds = %3
  %20 = getelementptr inbounds nuw i8, ptr %1, i64 1
  %21 = load i8, ptr %20, align 1
  %22 = icmp ne i8 %21, 0
  %23 = icmp ne ptr %2, null
  %or.cond = or i1 %23, %22
  %spec.select = select i1 %or.cond, i8 2, i8 1
  br label %24

24:                                               ; preds = %19, %3
  %.0 = phi i8 [ %17, %3 ], [ %spec.select, %19 ]
  %25 = sext i8 %.0 to i32
  ret i32 %25
}